; Function Attrs: mustprogress uwtable
define dso_local void @_ZN20Sample_TempObstacles15addTempObstacleEPKf(ptr nocapture noundef nonnull readonly align 8 dereferenceable(276) %0, ptr nocapture noundef readonly %1) local_unnamed_addr #5 align 2 {
  %3 = alloca [3 x float], align 4
  %4 = getelementptr inbounds i8, ptr %0, i64 232
  %5 = load ptr, ptr %4, align 8
  %.not = icmp eq ptr %5, null
  br i1 %.not, label %16, label %6

6:                                                ; preds = %2
  %7 = load float, ptr %1, align 4
  store float %7, ptr %3, align 4
  %8 = getelementptr inbounds i8, ptr %1, i64 4
  %9 = load float, ptr %8, align 4
  %10 = getelementptr inbounds i8, ptr %3, i64 4
  %11 = getelementptr inbounds i8, ptr %1, i64 8
  %12 = load float, ptr %11, align 4
  %13 = getelementptr inbounds i8, ptr %3, i64 8
  store float %12, ptr %13, align 4
  %14 = fadd float %9, -5.000000e-01
  store float %14, ptr %10, align 4
  %15 = call noundef i32 @_ZN11dtTileCache11addObstacleEPKfffPj(ptr noundef nonnull align 8 dereferenceable(912) %5, ptr noundef nonnull %3, float noundef 1.000000e+00, float noundef 2.000000e+00, ptr noundef null)
  br label %16

16:                                               ; preds = %2, %6
  ret void
}